; Function Attrs: mustprogress uwtable
define noundef nonnull align 8 dereferenceable(8) ptr @_ZN5boost9unit_test15unit_test_log_tlsENS0_9log_levelE(ptr noundef nonnull readnone returned align 8 dereferenceable(8) %0, i32 noundef %1) local_unnamed_addr #4 align 2 personality ptr @__gxx_personality_v0 {
  %3 = load atomic i8, ptr @_ZGVZN5boost9unit_test12_GLOBAL__N_110s_log_implEvE8the_inst acquire, align 8
  %4 = icmp eq i8 %3, 0
  br i1 %4, label %5, label %_ZN5boost9unit_test12_GLOBAL__N_110s_log_implEv.exit, !prof !3

5:                                                ; preds = %2
  %6 = tail call i32 @__cxa_guard_acquire(ptr nonnull @_ZGVZN5boost9unit_test12_GLOBAL__N_110s_log_implEvE8the_inst) #27
  %.not.i = icmp eq i32 %6, 0
  br i1 %.not.i, label %_ZN5boost9unit_test12_GLOBAL__N_110s_log_implEv.exit, label %7

7:                                                ; preds = %5
  invoke fastcc void @_ZN5boost9unit_test12_GLOBAL__N_118unit_test_log_implC2Ev()
          to label %8 unwind label %10

8:                                                ; preds = %7
  %9 = tail call i32 @__cxa_atexit(ptr nonnull @_ZN5boost9unit_test12_GLOBAL__N_118unit_test_log_implD2Ev, ptr nonnull @_ZZN5boost9unit_test12_GLOBAL__N_110s_log_implEvE8the_inst, ptr nonnull @__dso_handle) #27
  tail call void @__cxa_guard_release(ptr nonnull @_ZGVZN5boost9unit_test12_GLOBAL__N_110s_log_implEvE8the_inst) #27
  br label %_ZN5boost9unit_test12_GLOBAL__N_110s_log_implEv.exit

10:                                               ; preds = %7
  %11 = landingpad { ptr, i32 }
          cleanup
  tail call void @__cxa_guard_abort(ptr nonnull @_ZGVZN5boost9unit_test12_GLOBAL__N_110s_log_implEvE8the_inst) #27
  resume { ptr, i32 } %11

_ZN5boost9unit_test12_GLOBAL__N_110s_log_implEv.exit: ; preds = %2, %5, %8
  store i32 %1, ptr getelementptr inbounds nuw (i8, ptr @_ZZN5boost9unit_test12_GLOBAL__N_110s_log_implEvE8the_inst, i64 88), align 8, !tbaa !13
  ret ptr %0
}